target datalayout = "e-m:e-p270:32:32-p271:32:32-p272:64:64-i64:64-i128:128-f80:128-n8:16:32:64-S128"
target triple = "x86_64-pc-linux-gnu"

%struct.DCALbrDecoder = type { ptr, %struct.GetBitContext, i32, i32, i32, i32, i32, i32, i32, i32, i32, i32, i32, i32, i32, i32, i32, i32, i32, i32, i32, [3 x [32 x i8]], [32 x i8], [3 x [32 x i8]], [3 x [32 x i8]], [6 x i32], [6 x [12 x [8 x i8]]], [6 x [3 x [64 x i8]]], [6 x [28 x i8]], [6 x [28 x [8 x i8]]], [6 x i32], [6 x [32 x [8 x i8]]], [6 x [8 x [5 x i8]]], i8, [2 x [6 x [3 x [2 x [8 x float]]]]], [32 x float], [6 x [32 x ptr]], ptr, i32, [4 x i8], [6 x [128 x float]], [128 x float], [64 x float], [5 x [2 x float]], float, [6 x i8], [5 x [32 x [2 x i16]]], [512 x %struct.DCALbrTone], i32, ptr, ptr, ptr, ptr, [8 x i8] }
%struct.GetBitContext = type { ptr, ptr, i32, i32, i32 }
%struct.DCALbrTone = type { i8, i8, i8, i8, [6 x i8], [6 x i8] }

@ff_dca_long_window = external constant [128 x float], align 16

; Function Attrs: nounwind uwtable
define internal i32 @init_sample_rate(ptr noundef %0) #3 {
  %2 = alloca i32, align 4
  %3 = alloca ptr, align 8
  %4 = alloca double, align 8
  %5 = alloca float, align 4
  %6 = alloca i32, align 4
  %7 = alloca i32, align 4
  %8 = alloca i32, align 4
  %9 = alloca i32, align 4
  store ptr %0, ptr %3, align 8, !tbaa !12
  call void @llvm.lifetime.start.p0(i64 8, ptr %4) #12
  %10 = load ptr, ptr %3, align 8, !tbaa !12
  %11 = getelementptr inbounds nuw %struct.DCALbrDecoder, ptr %10, i32 0, i32 12
  %12 = load i32, ptr %11, align 16, !tbaa !90
  %13 = sub nsw i32 2, %12
  %14 = shl i32 1, %13
  %15 = sitofp i32 %14 to double
  %16 = call nsz double @llvm.sqrt.f64(double %15)
  %17 = fmul nsz double 0xBEE0000000000000, %16
  store double %17, ptr %4, align 8, !tbaa !179
  call void @llvm.lifetime.start.p0(i64 4, ptr %5) #12
  %18 = load double, ptr %4, align 8, !tbaa !179
  %19 = fptrunc nsz double %18 to float
  store float %19, ptr %5, align 4, !tbaa !8
  call void @llvm.lifetime.start.p0(i64 4, ptr %6) #12
  call void @llvm.lifetime.start.p0(i64 4, ptr %7) #12
  %20 = load ptr, ptr %3, align 8, !tbaa !12
  %21 = getelementptr inbounds nuw %struct.DCALbrDecoder, ptr %20, i32 0, i32 6
  %22 = load i32, ptr %21, align 8, !tbaa !85
  %23 = load ptr, ptr %3, align 8, !tbaa !12
  %24 = getelementptr inbounds nuw %struct.DCALbrDecoder, ptr %23, i32 0, i32 8
  %25 = load i32, ptr %24, align 16, !tbaa !86
  %26 = sdiv i32 %22, %25
  store i32 %26, ptr %7, align 4, !tbaa !4
  call void @llvm.lifetime.start.p0(i64 4, ptr %8) #12
  %27 = load ptr, ptr %3, align 8, !tbaa !12
  %28 = getelementptr inbounds nuw %struct.DCALbrDecoder, ptr %27, i32 0, i32 49
  call void @av_tx_uninit(ptr noundef %28)
  %29 = load ptr, ptr %3, align 8, !tbaa !12
  %30 = getelementptr inbounds nuw %struct.DCALbrDecoder, ptr %29, i32 0, i32 49
  %31 = load ptr, ptr %3, align 8, !tbaa !12
  %32 = getelementptr inbounds nuw %struct.DCALbrDecoder, ptr %31, i32 0, i32 50
  %33 = load ptr, ptr %3, align 8, !tbaa !12
  %34 = getelementptr inbounds nuw %struct.DCALbrDecoder, ptr %33, i32 0, i32 9
  %35 = load i32, ptr %34, align 4, !tbaa !87
  %36 = add nsw i32 %35, 5
  %37 = shl i32 1, %36
  %38 = call i32 @av_tx_init(ptr noundef %30, ptr noundef %32, i32 noundef 1, i32 noundef 1, i32 noundef %37, ptr noundef %5, i64 noundef 4)
  store i32 %38, ptr %8, align 4, !tbaa !4
  %39 = load i32, ptr %8, align 4, !tbaa !4
  %40 = icmp slt i32 %39, 0
  br i1 %40, label %41, label %43

41:                                               ; preds = %1
  %42 = load i32, ptr %8, align 4, !tbaa !4
  store i32 %42, ptr %2, align 4
  store i32 1, ptr %9, align 4
  br label %142

43:                                               ; preds = %1
  store i32 0, ptr %6, align 4, !tbaa !4
  br label %44

44:                                               ; preds = %66, %43
  %45 = load i32, ptr %6, align 4, !tbaa !4
  %46 = load ptr, ptr %3, align 8, !tbaa !12
  %47 = getelementptr inbounds nuw %struct.DCALbrDecoder, ptr %46, i32 0, i32 9
  %48 = load i32, ptr %47, align 4, !tbaa !87
  %49 = shl i32 32, %48
  %50 = icmp slt i32 %45, %49
  br i1 %50, label %51, label %69

51:                                               ; preds = %44
  %52 = load i32, ptr %6, align 4, !tbaa !4
  %53 = load ptr, ptr %3, align 8, !tbaa !12
  %54 = getelementptr inbounds nuw %struct.DCALbrDecoder, ptr %53, i32 0, i32 9
  %55 = load i32, ptr %54, align 4, !tbaa !87
  %56 = sub nsw i32 2, %55
  %57 = shl i32 %52, %56
  %58 = sext i32 %57 to i64
  %59 = getelementptr inbounds [128 x float], ptr @ff_dca_long_window, i64 0, i64 %58
  %60 = load float, ptr %59, align 4, !tbaa !8
  %61 = load ptr, ptr %3, align 8, !tbaa !12
  %62 = getelementptr inbounds nuw %struct.DCALbrDecoder, ptr %61, i32 0, i32 41
  %63 = load i32, ptr %6, align 4, !tbaa !4
  %64 = sext i32 %63 to i64
  %65 = getelementptr inbounds [128 x float], ptr %62, i64 0, i64 %64
  store float %60, ptr %65, align 4, !tbaa !8
  br label %66

66:                                               ; preds = %51
  %67 = load i32, ptr %6, align 4, !tbaa !4
  %68 = add nsw i32 %67, 1
  store i32 %68, ptr %6, align 4, !tbaa !4
  br label %44, !llvm.loop !181

69:                                               ; preds = %44
  %70 = load i32, ptr %7, align 4, !tbaa !4
  %71 = icmp slt i32 %70, 14000
  br i1 %71, label %72, label %73

72:                                               ; preds = %69
  store double 8.500000e-01, ptr %4, align 8, !tbaa !179
  br label %83

73:                                               ; preds = %69
  %74 = load i32, ptr %7, align 4, !tbaa !4
  %75 = icmp slt i32 %74, 32000
  br i1 %75, label %76, label %81

76:                                               ; preds = %73
  %77 = load i32, ptr %7, align 4, !tbaa !4
  %78 = sub nsw i32 %77, 14000
  %79 = sitofp i32 %78 to double
  %80 = call nsz double @llvm.fmuladd.f64(double %79, double 0x3EE179EC9CBD821E, double 8.500000e-01)
  store double %80, ptr %4, align 8, !tbaa !179
  br label %82

81:                                               ; preds = %73
  store double 1.000000e+00, ptr %4, align 8, !tbaa !179
  br label %82

82:                                               ; preds = %81, %76
  br label %83

83:                                               ; preds = %82, %72
  %84 = load double, ptr %4, align 8, !tbaa !179
  %85 = fmul nsz double %84, 0x3E00000000200000
  store double %85, ptr %4, align 8, !tbaa !179
  store i32 0, ptr %6, align 4, !tbaa !4
  br label %86

86:                                               ; preds = %129, %83
  %87 = load i32, ptr %6, align 4, !tbaa !4
  %88 = load ptr, ptr %3, align 8, !tbaa !12
  %89 = getelementptr inbounds nuw %struct.DCALbrDecoder, ptr %88, i32 0, i32 14
  %90 = load i32, ptr %89, align 8, !tbaa !57
  %91 = icmp slt i32 %87, %90
  br i1 %91, label %92, label %132

92:                                               ; preds = %86
  %93 = load i32, ptr %6, align 4, !tbaa !4
  %94 = icmp slt i32 %93, 2
  br i1 %94, label %95, label %101

95:                                               ; preds = %92
  %96 = load ptr, ptr %3, align 8, !tbaa !12
  %97 = getelementptr inbounds nuw %struct.DCALbrDecoder, ptr %96, i32 0, i32 35
  %98 = load i32, ptr %6, align 4, !tbaa !4
  %99 = sext i32 %98 to i64
  %100 = getelementptr inbounds [32 x float], ptr %97, i64 0, i64 %99
  store float 0.000000e+00, ptr %100, align 4, !tbaa !8
  br label %128

101:                                              ; preds = %92
  %102 = load i32, ptr %6, align 4, !tbaa !4
  %103 = icmp slt i32 %102, 5
  br i1 %103, label %104, label %118

104:                                              ; preds = %101
  %105 = load i32, ptr %6, align 4, !tbaa !4
  %106 = sub nsw i32 %105, 1
  %107 = sitofp i32 %106 to double
  %108 = fmul nsz double %107, 2.500000e-01
  %109 = fmul nsz double %108, 7.850000e-01
  %110 = load double, ptr %4, align 8, !tbaa !179
  %111 = fmul nsz double %109, %110
  %112 = fptrunc nsz double %111 to float
  %113 = load ptr, ptr %3, align 8, !tbaa !12
  %114 = getelementptr inbounds nuw %struct.DCALbrDecoder, ptr %113, i32 0, i32 35
  %115 = load i32, ptr %6, align 4, !tbaa !4
  %116 = sext i32 %115 to i64
  %117 = getelementptr inbounds [32 x float], ptr %114, i64 0, i64 %116
  store float %112, ptr %117, align 4, !tbaa !8
  br label %127

118:                                              ; preds = %101
  %119 = load double, ptr %4, align 8, !tbaa !179
  %120 = fmul nsz double 7.850000e-01, %119
  %121 = fptrunc nsz double %120 to float
  %122 = load ptr, ptr %3, align 8, !tbaa !12
  %123 = getelementptr inbounds nuw %struct.DCALbrDecoder, ptr %122, i32 0, i32 35
  %124 = load i32, ptr %6, align 4, !tbaa !4
  %125 = sext i32 %124 to i64
  %126 = getelementptr inbounds [32 x float], ptr %123, i64 0, i64 %125
  store float %121, ptr %126, align 4, !tbaa !8
  br label %127

127:                                              ; preds = %118, %104
  br label %128

128:                                              ; preds = %127, %95
  br label %129

129:                                              ; preds = %128
  %130 = load i32, ptr %6, align 4, !tbaa !4
  %131 = add nsw i32 %130, 1
  store i32 %131, ptr %6, align 4, !tbaa !4
  br label %86, !llvm.loop !182

132:                                              ; preds = %86
  %133 = load ptr, ptr %3, align 8, !tbaa !12
  %134 = getelementptr inbounds nuw %struct.DCALbrDecoder, ptr %133, i32 0, i32 9
  %135 = load i32, ptr %134, align 4, !tbaa !87
  %136 = shl i32 16, %135
  %137 = sitofp i32 %136 to double
  %138 = fmul nsz double %137, 0x3EE069DE41A2D800
  %139 = fptrunc nsz double %138 to float
  %140 = load ptr, ptr %3, align 8, !tbaa !12
  %141 = getelementptr inbounds nuw %struct.DCALbrDecoder, ptr %140, i32 0, i32 44
  store float %139, ptr %141, align 8, !tbaa !183
  store i32 0, ptr %2, align 4
  store i32 1, ptr %9, align 4
  br label %142

142:                                              ; preds = %132, %41
  call void @llvm.lifetime.end.p0(i64 4, ptr %8) #12
  call void @llvm.lifetime.end.p0(i64 4, ptr %7) #12
  call void @llvm.lifetime.end.p0(i64 4, ptr %6) #12
  call void @llvm.lifetime.end.p0(i64 4, ptr %5) #12
  call void @llvm.lifetime.end.p0(i64 8, ptr %4) #12
  %143 = load i32, ptr %2, align 4
  ret i32 %143
}