; Function Attrs: nounwind uwtable
define internal fastcc range(i32 -2147483648, 1) i32 @init_sample_rate(ptr noundef %0) unnamed_addr #3 {
  %2 = alloca float, align 4
  %3 = getelementptr inbounds nuw i8, ptr %0, i64 80
  %4 = load i32, ptr %3, align 16, !tbaa !38
  %5 = sub nsw i32 2, %4
  %6 = shl nuw i32 1, %5
  %7 = sitofp i32 %6 to double
  %8 = tail call nsz double @llvm.sqrt.f64(double %7)
  %9 = fmul nsz double %8, 0xBEE0000000000000
  call void @llvm.lifetime.start.p0(i64 4, ptr nonnull %2) #12
  %10 = fptrunc nsz double %9 to float
  store float %10, ptr %2, align 4, !tbaa !4
  %11 = getelementptr inbounds nuw i8, ptr %0, i64 56
  %12 = load i32, ptr %11, align 8, !tbaa !33
  %13 = getelementptr inbounds nuw i8, ptr %0, i64 64
  %14 = load i32, ptr %13, align 16, !tbaa !34
  %15 = sdiv i32 %12, %14
  %16 = getelementptr inbounds nuw i8, ptr %0, i64 22216
  tail call void @av_tx_uninit(ptr noundef nonnull %16) #12
  %17 = getelementptr inbounds nuw i8, ptr %0, i64 22224
  %18 = getelementptr inbounds nuw i8, ptr %0, i64 68
  %19 = load i32, ptr %18, align 4, !tbaa !35
  %20 = add nsw i32 %19, 5
  %21 = shl nuw i32 1, %20
  %22 = call i32 @av_tx_init(ptr noundef nonnull %16, ptr noundef nonnull %17, i32 noundef 1, i32 noundef 1, i32 noundef %21, ptr noundef nonnull %2, i64 noundef 4) #12
  %23 = icmp slt i32 %22, 0
  br i1 %23, label %70, label %.preheader

.preheader:                                       ; preds = %1
  %24 = load i32, ptr %18, align 4, !tbaa !35
  %25 = shl i32 32, %24
  %26 = icmp sgt i32 %25, 0
  br i1 %26, label %.lr.ph, label %._crit_edge

.lr.ph:                                           ; preds = %.preheader
  %27 = sub nsw i32 2, %24
  %28 = getelementptr inbounds nuw i8, ptr %0, i64 12560
  %wide.trip.count = zext nneg i32 %25 to i64
  br label %29

29:                                               ; preds = %.lr.ph, %29
  %indvars.iv = phi i64 [ 0, %.lr.ph ], [ %indvars.iv.next, %29 ]
  %30 = trunc nuw nsw i64 %indvars.iv to i32
  %31 = shl i32 %30, %27
  %32 = sext i32 %31 to i64
  %33 = getelementptr inbounds [128 x float], ptr @ff_dca_long_window, i64 0, i64 %32
  %34 = load float, ptr %33, align 4, !tbaa !4
  %35 = getelementptr inbounds nuw [128 x float], ptr %28, i64 0, i64 %indvars.iv
  store float %34, ptr %35, align 4, !tbaa !4
  %indvars.iv.next = add nuw nsw i64 %indvars.iv, 1
  %exitcond.not = icmp eq i64 %indvars.iv.next, %wide.trip.count
  br i1 %exitcond.not, label %._crit_edge, label %29, !llvm.loop !177

._crit_edge:                                      ; preds = %29, %.preheader
  %36 = icmp slt i32 %15, 14000
  br i1 %36, label %44, label %37

37:                                               ; preds = %._crit_edge
  %38 = icmp samesign ult i32 %15, 32000
  br i1 %38, label %39, label %44

39:                                               ; preds = %37
  %40 = add nsw i32 %15, -14000
  %41 = uitofp nneg i32 %40 to double
  %42 = call nsz double @llvm.fmuladd.f64(double %41, double 0x3EE179EC9CBD821E, double 8.500000e-01)
  %43 = fmul nsz double %42, 0x3E00000000200000
  br label %44

44:                                               ; preds = %37, %._crit_edge, %39
  %.037 = phi double [ %43, %39 ], [ 0x3DFB333333699999, %._crit_edge ], [ 0x3E00000000200000, %37 ]
  %45 = getelementptr inbounds nuw i8, ptr %0, i64 88
  %46 = load i32, ptr %45, align 8, !tbaa !39
  %47 = icmp sgt i32 %46, 0
  br i1 %47, label %.lr.ph44, label %._crit_edge45

.lr.ph44:                                         ; preds = %44
  %48 = fmul nsz double %.037, 7.850000e-01
  %49 = fptrunc nsz double %48 to float
  %50 = getelementptr inbounds nuw i8, ptr %0, i64 7808
  %wide.trip.count50 = zext nneg i32 %46 to i64
  br label %51

51:                                               ; preds = %.lr.ph44, %63
  %indvars.iv47 = phi i64 [ 0, %.lr.ph44 ], [ %indvars.iv.next48, %63 ]
  %52 = icmp samesign ult i64 %indvars.iv47, 2
  br i1 %52, label %63, label %53

53:                                               ; preds = %51
  %54 = icmp samesign ult i64 %indvars.iv47, 5
  br i1 %54, label %55, label %63

55:                                               ; preds = %53
  %56 = trunc nuw nsw i64 %indvars.iv47 to i32
  %57 = add nsw i32 %56, -1
  %58 = uitofp nneg i32 %57 to double
  %59 = fmul nsz double %58, 2.500000e-01
  %60 = fmul nsz double %59, 7.850000e-01
  %61 = fmul nsz double %.037, %60
  %62 = fptrunc nsz double %61 to float
  br label %63

63:                                               ; preds = %53, %51, %55
  %.sink = phi float [ %62, %55 ], [ 0.000000e+00, %51 ], [ %49, %53 ]
  %64 = getelementptr inbounds nuw [32 x float], ptr %50, i64 0, i64 %indvars.iv47
  store float %.sink, ptr %64, align 4, !tbaa !4
  %indvars.iv.next48 = add nuw nsw i64 %indvars.iv47, 1
  %exitcond51.not = icmp eq i64 %indvars.iv.next48, %wide.trip.count50
  br i1 %exitcond51.not, label %._crit_edge45, label %51, !llvm.loop !178

._crit_edge45:                                    ; preds = %63, %44
  %65 = shl i32 16, %24
  %66 = sitofp i32 %65 to double
  %67 = fmul nsz double %66, 0x3EE069DE41A2D800
  %68 = fptrunc nsz double %67 to float
  %69 = getelementptr inbounds nuw i8, ptr %0, i64 13368
  store float %68, ptr %69, align 8, !tbaa !93
  br label %70

70:                                               ; preds = %1, %._crit_edge45
  %.0 = phi i32 [ 0, %._crit_edge45 ], [ %22, %1 ]
  call void @llvm.lifetime.end.p0(i64 4, ptr nonnull %2) #12
  ret i32 %.0
}